target datalayout = "e-m:e-p270:32:32-p271:32:32-p272:64:64-i64:64-i128:128-f80:128-n8:16:32:64-S128"
target triple = "x86_64-pc-linux-gnu"

%"class.base::internal::WeakReference" = type { %class.scoped_refptr }
%class.scoped_refptr = type { ptr }

@_ZN4base8internal13WeakReference4FlagD1Ev = unnamed_addr alias void (ptr), ptr @_ZN4base8internal13WeakReference4FlagD2Ev

; Function Attrs: mustprogress nounwind uwtable
define linkonce_odr void @_ZN4base20RefCountedThreadSafeINS_8internal13WeakReference4FlagENS_33DefaultRefCountedThreadSafeTraitsIS3_EEE14DeleteInternalEPKS3_(ptr noundef %0) #1 comdat align 2 {
  %2 = alloca ptr, align 8
  store ptr %0, ptr %2, align 8, !tbaa !3
  %3 = load ptr, ptr %2, align 8, !tbaa !3
  %4 = icmp eq ptr %3, null
  br i1 %4, label %6, label %5

5:                                                ; preds = %1
  call void @_ZN4base8internal13WeakReference4FlagD1Ev(ptr noundef nonnull align 4 dereferenceable(6) %3) #8
  call void @_ZdlPv(ptr noundef %3) #11
  br label %6

6:                                                ; preds = %5, %1
  ret void
}

; Function Attrs: mustprogress uwtable
define linkonce_odr void @_ZN4base33DefaultRefCountedThreadSafeTraitsINS_8internal13WeakReference4FlagEE8DestructEPKS3_(ptr noundef %0) #0 comdat align 2 {
  %2 = alloca ptr, align 8
  store ptr %0, ptr %2, align 8, !tbaa !3
  %3 = load ptr, ptr %2, align 8, !tbaa !3
  call void @_ZN4base20RefCountedThreadSafeINS_8internal13WeakReference4FlagENS_33DefaultRefCountedThreadSafeTraitsIS3_EEE14DeleteInternalEPKS3_(ptr noundef %3)
  ret void
}

; Function Attrs: mustprogress uwtable
define linkonce_odr void @_ZNK4base20RefCountedThreadSafeINS_8internal13WeakReference4FlagENS_33DefaultRefCountedThreadSafeTraitsIS3_EEE7ReleaseEv(ptr noundef nonnull align 4 dereferenceable(4) %0) #0 comdat align 2 {
  %2 = alloca ptr, align 8
  store ptr %0, ptr %2, align 8, !tbaa !15
  %3 = load ptr, ptr %2, align 8
  %4 = call noundef zeroext i1 @_ZNK4base6subtle24RefCountedThreadSafeBase7ReleaseEv(ptr noundef nonnull align 4 dereferenceable(4) %3)
  br i1 %4, label %5, label %6

5:                                                ; preds = %1
  call void @_ZN4base33DefaultRefCountedThreadSafeTraitsINS_8internal13WeakReference4FlagEE8DestructEPKS3_(ptr noundef %3)
  br label %6

6:                                                ; preds = %5, %1
  ret void
}

; Function Attrs: mustprogress uwtable
define linkonce_odr void @_ZN13scoped_refptrIKN4base8internal13WeakReference4FlagEE7ReleaseEPS4_(ptr noundef %0) #0 comdat align 2 {
  %2 = alloca ptr, align 8
  store ptr %0, ptr %2, align 8, !tbaa !3
  %3 = load ptr, ptr %2, align 8, !tbaa !3
  call void @_ZNK4base20RefCountedThreadSafeINS_8internal13WeakReference4FlagENS_33DefaultRefCountedThreadSafeTraitsIS3_EEE7ReleaseEv(ptr noundef nonnull align 4 dereferenceable(4) %3)
  ret void
}

; Function Attrs: mustprogress nounwind uwtable
define linkonce_odr void @_ZN13scoped_refptrIKN4base8internal13WeakReference4FlagEED2Ev(ptr noundef nonnull align 8 dereferenceable(8) %0) unnamed_addr #1 comdat align 2 personality ptr @__gxx_personality_v0 {
  %2 = alloca ptr, align 8
  store ptr %0, ptr %2, align 8, !tbaa !23
  %3 = load ptr, ptr %2, align 8
  %4 = getelementptr inbounds nuw %class.scoped_refptr, ptr %3, i32 0, i32 0
  %5 = load ptr, ptr %4, align 8, !tbaa !25
  %6 = icmp ne ptr %5, null
  br i1 %6, label %7, label %11

7:                                                ; preds = %1
  %8 = getelementptr inbounds nuw %class.scoped_refptr, ptr %3, i32 0, i32 0
  %9 = load ptr, ptr %8, align 8, !tbaa !25
  invoke void @_ZN13scoped_refptrIKN4base8internal13WeakReference4FlagEE7ReleaseEPS4_(ptr noundef %9)
          to label %10 unwind label %12

10:                                               ; preds = %7
  br label %11

11:                                               ; preds = %10, %1
  ret void

12:                                               ; preds = %7
  %13 = landingpad { ptr, i32 }
          catch ptr null
  %14 = extractvalue { ptr, i32 } %13, 0
  call void @__clang_call_terminate(ptr %14) #9
  unreachable
}

; Function Attrs: mustprogress nounwind uwtable
define void @_ZN4base8internal13WeakReferenceD2Ev(ptr noundef nonnull align 8 dereferenceable(8) %0) unnamed_addr #1 align 2 {
  %2 = alloca ptr, align 8
  store ptr %0, ptr %2, align 8, !tbaa !21
  %3 = load ptr, ptr %2, align 8
  %4 = getelementptr inbounds nuw %"class.base::internal::WeakReference", ptr %3, i32 0, i32 0
  call void @_ZN13scoped_refptrIKN4base8internal13WeakReference4FlagEED2Ev(ptr noundef nonnull align 8 dereferenceable(8) %4) #8
  ret void
}