; Function Attrs: mustprogress nounwind uwtable
define void @_ZN4base8internal13WeakReferenceD2Ev(ptr noundef nonnull readonly align 8 captures(none) dereferenceable(8) %0) unnamed_addr #4 align 2 personality ptr @__gxx_personality_v0 {
  %2 = load ptr, ptr %0, align 8, !tbaa !14
  %.not.i = icmp eq ptr %2, null
  br i1 %.not.i, label %_ZN13scoped_refptrIKN4base8internal13WeakReference4FlagEED2Ev.exit, label %3

3:                                                ; preds = %1
  %4 = invoke noundef zeroext i1 @_ZNK4base6subtle24RefCountedThreadSafeBase7ReleaseEv(ptr noundef nonnull align 4 dereferenceable(4) %2)
          to label %.noexc.i unwind label %6

.noexc.i:                                         ; preds = %3
  br i1 %4, label %5, label %_ZN13scoped_refptrIKN4base8internal13WeakReference4FlagEED2Ev.exit

5:                                                ; preds = %.noexc.i
  tail call void @_ZN4base8internal13WeakReference4FlagD1Ev(ptr noundef nonnull align 4 dereferenceable(6) %2) #12
  tail call void @_ZdlPv(ptr noundef nonnull align 4 dereferenceable(4) %2) #13
  br label %_ZN13scoped_refptrIKN4base8internal13WeakReference4FlagEED2Ev.exit

6:                                                ; preds = %3
  %7 = landingpad { ptr, i32 }
          catch ptr null
  %8 = extractvalue { ptr, i32 } %7, 0
  tail call void @__clang_call_terminate(ptr %8) #14
  unreachable

_ZN13scoped_refptrIKN4base8internal13WeakReference4FlagEED2Ev.exit: ; preds = %1, %.noexc.i, %5
  ret void
}